target datalayout = "e-m:e-p270:32:32-p271:32:32-p272:64:64-i64:64-i128:128-f80:128-n8:16:32:64-S128"
target triple = "x86_64-pc-linux-gnu"

%struct.Cut_ManStruct_t_ = type { ptr, ptr, ptr, ptr, ptr, ptr, ptr, i32, i32, ptr, ptr, i32, i32, i32, i32, [2 x ptr], [2 x ptr], ptr, ptr, [4 x ptr], ptr, ptr, ptr, ptr, ptr, ptr, i32, i32, i32, i32, i32, i32, i32, i32, i32, i32, i32, i64, i64, i64, i64, i64, i64 }

@.str.24 = private unnamed_addr constant [14 x i8] c"cut_stats.txt\00", align 1
@.str.25 = private unnamed_addr constant [3 x i8] c"a+\00", align 1
@.str.26 = private unnamed_addr constant [7 x i8] c"%-20s \00", align 1
@.str.27 = private unnamed_addr constant [5 x i8] c"%8d \00", align 1
@.str.28 = private unnamed_addr constant [7 x i8] c"%6.1f \00", align 1
@.str.29 = private unnamed_addr constant [7 x i8] c"%6.2f \00", align 1
@.str.30 = private unnamed_addr constant [2 x i8] c"\0A\00", align 1

; Function Attrs: nounwind uwtable
define void @Cut_ManPrintStatsToFile(ptr noundef %0, ptr noundef %1, i64 noundef %2) #0 {
  %4 = alloca ptr, align 8
  %5 = alloca ptr, align 8
  %6 = alloca i64, align 8
  %7 = alloca ptr, align 8
  store ptr %0, ptr %4, align 8, !tbaa !8
  store ptr %1, ptr %5, align 8, !tbaa !77
  store i64 %2, ptr %6, align 8, !tbaa !81
  call void @llvm.lifetime.start.p0(i64 8, ptr %7) #10
  %8 = call noalias ptr @fopen(ptr noundef @.str.24, ptr noundef @.str.25)
  store ptr %8, ptr %7, align 8, !tbaa !79
  %9 = load ptr, ptr %7, align 8, !tbaa !79
  %10 = load ptr, ptr %5, align 8, !tbaa !77
  %11 = call i32 (ptr, ptr, ...) @fprintf(ptr noundef %9, ptr noundef @.str.26, ptr noundef %10) #10
  %12 = load ptr, ptr %7, align 8, !tbaa !79
  %13 = load ptr, ptr %4, align 8, !tbaa !8
  %14 = getelementptr inbounds nuw %struct.Cut_ManStruct_t_, ptr %13, i32 0, i32 34
  %15 = load i32, ptr %14, align 8, !tbaa !66
  %16 = call i32 (ptr, ptr, ...) @fprintf(ptr noundef %12, ptr noundef @.str.27, i32 noundef %15) #10
  %17 = load ptr, ptr %7, align 8, !tbaa !79
  %18 = load ptr, ptr %4, align 8, !tbaa !8
  %19 = getelementptr inbounds nuw %struct.Cut_ManStruct_t_, ptr %18, i32 0, i32 27
  %20 = load i32, ptr %19, align 4, !tbaa !58
  %21 = sitofp i32 %20 to float
  %22 = load ptr, ptr %4, align 8, !tbaa !8
  %23 = getelementptr inbounds nuw %struct.Cut_ManStruct_t_, ptr %22, i32 0, i32 34
  %24 = load i32, ptr %23, align 8, !tbaa !66
  %25 = sitofp i32 %24 to float
  %26 = fdiv float %21, %25
  %27 = fpext float %26 to double
  %28 = call i32 (ptr, ptr, ...) @fprintf(ptr noundef %17, ptr noundef @.str.28, double noundef %27) #10
  %29 = load ptr, ptr %7, align 8, !tbaa !79
  %30 = load ptr, ptr %4, align 8, !tbaa !8
  %31 = getelementptr inbounds nuw %struct.Cut_ManStruct_t_, ptr %30, i32 0, i32 33
  %32 = load i32, ptr %31, align 4, !tbaa !64
  %33 = sitofp i32 %32 to double
  %34 = fmul double 1.000000e+02, %33
  %35 = fptrunc double %34 to float
  %36 = load ptr, ptr %4, align 8, !tbaa !8
  %37 = getelementptr inbounds nuw %struct.Cut_ManStruct_t_, ptr %36, i32 0, i32 34
  %38 = load i32, ptr %37, align 8, !tbaa !66
  %39 = sitofp i32 %38 to float
  %40 = fdiv float %35, %39
  %41 = fpext float %40 to double
  %42 = call i32 (ptr, ptr, ...) @fprintf(ptr noundef %29, ptr noundef @.str.29, double noundef %41) #10
  %43 = load ptr, ptr %7, align 8, !tbaa !79
  %44 = load ptr, ptr %4, align 8, !tbaa !8
  %45 = getelementptr inbounds nuw %struct.Cut_ManStruct_t_, ptr %44, i32 0, i32 30
  %46 = load i32, ptr %45, align 8, !tbaa !60
  %47 = sitofp i32 %46 to float
  %48 = load ptr, ptr %4, align 8, !tbaa !8
  %49 = getelementptr inbounds nuw %struct.Cut_ManStruct_t_, ptr %48, i32 0, i32 7
  %50 = load i32, ptr %49, align 8, !tbaa !28
  %51 = sitofp i32 %50 to float
  %52 = fmul float %47, %51
  %53 = fdiv float %52, 0x4130000000000000
  %54 = fpext float %53 to double
  %55 = call i32 (ptr, ptr, ...) @fprintf(ptr noundef %43, ptr noundef @.str.29, double noundef %54) #10
  %56 = load ptr, ptr %7, align 8, !tbaa !79
  %57 = load i64, ptr %6, align 8, !tbaa !81
  %58 = sitofp i64 %57 to float
  %59 = fdiv float %58, 1.000000e+06
  %60 = fpext float %59 to double
  %61 = call i32 (ptr, ptr, ...) @fprintf(ptr noundef %56, ptr noundef @.str.29, double noundef %60) #10
  %62 = load ptr, ptr %7, align 8, !tbaa !79
  %63 = call i32 (ptr, ptr, ...) @fprintf(ptr noundef %62, ptr noundef @.str.30) #10
  %64 = load ptr, ptr %7, align 8, !tbaa !79
  %65 = call i32 @fclose(ptr noundef %64)
  call void @llvm.lifetime.end.p0(i64 8, ptr %7) #10
  ret void
}