; Function Attrs: nofree nounwind uwtable
define void @Cut_ManPrintStatsToFile(ptr noundef readonly captures(none) %0, ptr noundef %1, i64 noundef %2) local_unnamed_addr #8 {
  %4 = tail call noalias ptr @fopen(ptr noundef nonnull @.str.24, ptr noundef nonnull @.str.25)
  %5 = tail call i32 (ptr, ptr, ...) @fprintf(ptr noundef %4, ptr noundef nonnull @.str.26, ptr noundef %1) #20
  %6 = getelementptr inbounds nuw i8, ptr %0, i64 256
  %7 = load i32, ptr %6, align 8, !tbaa !60
  %8 = tail call i32 (ptr, ptr, ...) @fprintf(ptr noundef %4, ptr noundef nonnull @.str.27, i32 noundef %7) #20
  %9 = getelementptr inbounds nuw i8, ptr %0, i64 228
  %10 = load i32, ptr %9, align 4, !tbaa !52
  %11 = sitofp i32 %10 to float
  %12 = load i32, ptr %6, align 8, !tbaa !60
  %13 = sitofp i32 %12 to float
  %14 = fdiv float %11, %13
  %15 = fpext float %14 to double
  %16 = tail call i32 (ptr, ptr, ...) @fprintf(ptr noundef %4, ptr noundef nonnull @.str.28, double noundef %15) #20
  %17 = getelementptr inbounds nuw i8, ptr %0, i64 252
  %18 = load i32, ptr %17, align 4, !tbaa !58
  %19 = sitofp i32 %18 to double
  %20 = fmul double %19, 1.000000e+02
  %21 = fptrunc double %20 to float
  %22 = load i32, ptr %6, align 8, !tbaa !60
  %23 = sitofp i32 %22 to float
  %24 = fdiv float %21, %23
  %25 = fpext float %24 to double
  %26 = tail call i32 (ptr, ptr, ...) @fprintf(ptr noundef %4, ptr noundef nonnull @.str.29, double noundef %25) #20
  %27 = getelementptr inbounds nuw i8, ptr %0, i64 240
  %28 = load i32, ptr %27, align 8, !tbaa !54
  %29 = sitofp i32 %28 to float
  %30 = getelementptr inbounds nuw i8, ptr %0, i64 56
  %31 = load i32, ptr %30, align 8, !tbaa !32
  %32 = sitofp i32 %31 to float
  %33 = fmul float %29, %32
  %34 = fmul float %33, 0x3EB0000000000000
  %35 = fpext float %34 to double
  %36 = tail call i32 (ptr, ptr, ...) @fprintf(ptr noundef %4, ptr noundef nonnull @.str.29, double noundef %35) #20
  %37 = sitofp i64 %2 to float
  %38 = fdiv float %37, 1.000000e+06
  %39 = fpext float %38 to double
  %40 = tail call i32 (ptr, ptr, ...) @fprintf(ptr noundef %4, ptr noundef nonnull @.str.29, double noundef %39) #20
  %fputc = tail call i32 @fputc(i32 10, ptr %4)
  %41 = tail call i32 @fclose(ptr noundef %4)
  ret void
}